target datalayout = "e-m:e-p270:32:32-p271:32:32-p272:64:64-i64:64-i128:128-f80:128-n8:16:32:64-S128"
target triple = "x86_64-pc-linux-gnu"

%struct.PgStat_EntryRef = type { ptr, ptr, i32, ptr, %struct.dlist_node }
%struct.dlist_node = type { ptr, ptr }
%struct.PgStatShared_Database = type { %struct.PgStatShared_Common, %struct.PgStat_StatDBEntry }
%struct.PgStatShared_Common = type { i32, %struct.LWLock }
%struct.LWLock = type { i16, %struct.pg_atomic_uint32, %struct.proclist_head }
%struct.pg_atomic_uint32 = type { i32 }
%struct.proclist_head = type { i32, i32 }
%struct.PgStat_StatDBEntry = type { i64, i64, i64, i64, i64, i64, i64, i64, i64, i64, i64, i64, i64, i64, i64, i64, i64, i64, i64, i64, i64, i64, i64, i64, i64, i64, i64, i64, i64, i64, i64, i64, i64 }

; Function Attrs: nounwind uwtable
define dso_local void @pgstat_report_autovac(i32 noundef %0) #0 {
  %2 = alloca i32, align 4
  %3 = alloca ptr, align 8
  %4 = alloca ptr, align 8
  store i32 %0, ptr %2, align 4
  call void @llvm.lifetime.start.p0(i64 8, ptr %3) #4
  call void @llvm.lifetime.start.p0(i64 8, ptr %4) #4
  %5 = load i32, ptr %2, align 4
  %6 = call ptr @pgstat_get_entry_ref_locked(i32 noundef 1, i32 noundef %5, i64 noundef 0, i1 noundef zeroext false)
  store ptr %6, ptr %3, align 8
  %7 = load ptr, ptr %3, align 8
  %8 = getelementptr inbounds nuw %struct.PgStat_EntryRef, ptr %7, i32 0, i32 1
  %9 = load ptr, ptr %8, align 8
  store ptr %9, ptr %4, align 8
  %10 = call i64 @GetCurrentTimestamp()
  %11 = load ptr, ptr %4, align 8
  %12 = getelementptr inbounds nuw %struct.PgStatShared_Database, ptr %11, i32 0, i32 1
  %13 = getelementptr inbounds nuw %struct.PgStat_StatDBEntry, ptr %12, i32 0, i32 9
  store i64 %10, ptr %13, align 8
  %14 = load ptr, ptr %3, align 8
  call void @pgstat_unlock_entry(ptr noundef %14)
  call void @llvm.lifetime.end.p0(i64 8, ptr %4) #4
  call void @llvm.lifetime.end.p0(i64 8, ptr %3) #4
  ret void
}