; Function Attrs: nounwind uwtable
define dso_local void @pgstat_report_autovac(i32 noundef %0) local_unnamed_addr #0 {
  %2 = tail call ptr @pgstat_get_entry_ref_locked(i32 noundef 1, i32 noundef %0, i64 noundef 0, i1 noundef zeroext false) #6
  %3 = getelementptr inbounds nuw i8, ptr %2, i64 8
  %4 = load ptr, ptr %3, align 8
  %5 = tail call i64 @GetCurrentTimestamp() #6
  %6 = getelementptr inbounds nuw i8, ptr %4, i64 96
  store i64 %5, ptr %6, align 8
  tail call void @pgstat_unlock_entry(ptr noundef %2) #6
  ret void
}